#include <math.h>
#include <stdio.h>
#include <stdlib.h>
#include <string.h>

int main()
{
	int n,a,b,c,d,e;
	scanf("%d",&n);
	a=n/10000;
	n=n-10000*a;
	b=n/1000;
	n=n-1000*b;
	c=n/100;
	n=n-100*c;
	d=n/10;
	e=n-10*d;
	if(a!=0)
		printf("%d%d%d%d%d",e,d,c,b,a);
	else
		if(b!=0)
			printf("%d%d%d%d",e,d,c,b);
		else
			if(c!=0)
				printf("%d%d%d",e,d,c);
			else
				if(d!=0)
					printf("%d%d",e,d);
				else
					printf("%d",e);
	return 0;
}

