; ModuleID = '16/392.c'
source_filename = "16/392.c"
target datalayout = "e-m:e-p270:32:32-p271:32:32-p272:64:64-i64:64-f80:128-n8:16:32:64-S128"
target triple = "x86_64-pc-linux-gnu"

@.str = private unnamed_addr constant [3 x i8] c"%d\00", align 1
@.str.1 = private unnamed_addr constant [11 x i8] c"%d%d%d%d%d\00", align 1
@.str.2 = private unnamed_addr constant [9 x i8] c"%d%d%d%d\00", align 1
@.str.3 = private unnamed_addr constant [7 x i8] c"%d%d%d\00", align 1
@.str.4 = private unnamed_addr constant [5 x i8] c"%d%d\00", align 1

; Function Attrs: noinline nounwind uwtable
define dso_local i32 @main() #0 {
  %1 = alloca i32, align 4
  %2 = alloca i32, align 4
  %3 = alloca i32, align 4
  %4 = alloca i32, align 4
  %5 = alloca i32, align 4
  %6 = alloca i32, align 4
  %7 = alloca i32, align 4
  store i32 0, i32* %1, align 4
  %8 = call i32 (i8*, ...) @__isoc99_scanf(i8* getelementptr inbounds ([3 x i8], [3 x i8]* @.str, i64 0, i64 0), i32* %2)
  %9 = load i32, i32* %2, align 4
  %10 = sdiv i32 %9, 10000
  store i32 %10, i32* %3, align 4
  %11 = load i32, i32* %2, align 4
  %12 = load i32, i32* %3, align 4
  %13 = mul nsw i32 10000, %12
  %14 = sub nsw i32 %11, %13
  store i32 %14, i32* %2, align 4
  %15 = load i32, i32* %2, align 4
  %16 = sdiv i32 %15, 1000
  store i32 %16, i32* %4, align 4
  %17 = load i32, i32* %2, align 4
  %18 = load i32, i32* %4, align 4
  %19 = mul nsw i32 1000, %18
  %20 = sub nsw i32 %17, %19
  store i32 %20, i32* %2, align 4
  %21 = load i32, i32* %2, align 4
  %22 = sdiv i32 %21, 100
  store i32 %22, i32* %5, align 4
  %23 = load i32, i32* %2, align 4
  %24 = load i32, i32* %5, align 4
  %25 = mul nsw i32 100, %24
  %26 = sub nsw i32 %23, %25
  store i32 %26, i32* %2, align 4
  %27 = load i32, i32* %2, align 4
  %28 = sdiv i32 %27, 10
  store i32 %28, i32* %6, align 4
  %29 = load i32, i32* %2, align 4
  %30 = load i32, i32* %6, align 4
  %31 = mul nsw i32 10, %30
  %32 = sub nsw i32 %29, %31
  store i32 %32, i32* %7, align 4
  %33 = load i32, i32* %3, align 4
  %34 = icmp ne i32 %33, 0
  br i1 %34, label %35, label %42

35:                                               ; preds = %0
  %36 = load i32, i32* %7, align 4
  %37 = load i32, i32* %6, align 4
  %38 = load i32, i32* %5, align 4
  %39 = load i32, i32* %4, align 4
  %40 = load i32, i32* %3, align 4
  %41 = call i32 (i8*, ...) @printf(i8* getelementptr inbounds ([11 x i8], [11 x i8]* @.str.1, i64 0, i64 0), i32 %36, i32 %37, i32 %38, i32 %39, i32 %40)
  br label %72

42:                                               ; preds = %0
  %43 = load i32, i32* %4, align 4
  %44 = icmp ne i32 %43, 0
  br i1 %44, label %45, label %51

45:                                               ; preds = %42
  %46 = load i32, i32* %7, align 4
  %47 = load i32, i32* %6, align 4
  %48 = load i32, i32* %5, align 4
  %49 = load i32, i32* %4, align 4
  %50 = call i32 (i8*, ...) @printf(i8* getelementptr inbounds ([9 x i8], [9 x i8]* @.str.2, i64 0, i64 0), i32 %46, i32 %47, i32 %48, i32 %49)
  br label %71

51:                                               ; preds = %42
  %52 = load i32, i32* %5, align 4
  %53 = icmp ne i32 %52, 0
  br i1 %53, label %54, label %59

54:                                               ; preds = %51
  %55 = load i32, i32* %7, align 4
  %56 = load i32, i32* %6, align 4
  %57 = load i32, i32* %5, align 4
  %58 = call i32 (i8*, ...) @printf(i8* getelementptr inbounds ([7 x i8], [7 x i8]* @.str.3, i64 0, i64 0), i32 %55, i32 %56, i32 %57)
  br label %70

59:                                               ; preds = %51
  %60 = load i32, i32* %6, align 4
  %61 = icmp ne i32 %60, 0
  br i1 %61, label %62, label %66

62:                                               ; preds = %59
  %63 = load i32, i32* %7, align 4
  %64 = load i32, i32* %6, align 4
  %65 = call i32 (i8*, ...) @printf(i8* getelementptr inbounds ([5 x i8], [5 x i8]* @.str.4, i64 0, i64 0), i32 %63, i32 %64)
  br label %69

66:                                               ; preds = %59
  %67 = load i32, i32* %7, align 4
  %68 = call i32 (i8*, ...) @printf(i8* getelementptr inbounds ([3 x i8], [3 x i8]* @.str, i64 0, i64 0), i32 %67)
  br label %69

69:                                               ; preds = %66, %62
  br label %70

70:                                               ; preds = %69, %54
  br label %71

71:                                               ; preds = %70, %45
  br label %72

72:                                               ; preds = %71, %35
  ret i32 0
}

declare dso_local i32 @__isoc99_scanf(i8*, ...) #1

declare dso_local i32 @printf(i8*, ...) #1


!llvm.module.flags = !{!0}
!llvm.ident = !{!1}

!0 = !{i32 1, !"wchar_size", i32 4}
!1 = !{!"clang version 10.0.0-4ubuntu1 "}
